; Function Attrs: mustprogress nofree norecurse nosync nounwind willreturn memory(none) uwtable
define dso_local noundef ptr @_ZN4llvm18RISCVVPseudosTable13getPseudoInfoEj(i32 noundef %0) local_unnamed_addr #4 {
  %2 = add i32 %0, -11864
  %or.cond = icmp ult i32 %2, -11437
  br i1 %or.cond, label %15, label %_ZSt7advanceIPKN4llvm18RISCVVPseudosTable10PseudoInfoElEvRT_T0_.exit.i.i

_ZSt7advanceIPKN4llvm18RISCVVPseudosTable10PseudoInfoElEvRT_T0_.exit.i.i: ; preds = %1, %_ZSt7advanceIPKN4llvm18RISCVVPseudosTable10PseudoInfoElEvRT_T0_.exit.i.i
  %.05.i.i = phi ptr [ %.1.i.i, %_ZSt7advanceIPKN4llvm18RISCVVPseudosTable10PseudoInfoElEvRT_T0_.exit.i.i ], [ @_ZN4llvm18RISCVVPseudosTableL18RISCVVPseudosTableE, %1 ]
  %.0114.i.i = phi i64 [ %.112.i.i, %_ZSt7advanceIPKN4llvm18RISCVVPseudosTable10PseudoInfoElEvRT_T0_.exit.i.i ], [ 11339, %1 ]
  %3 = lshr i64 %.0114.i.i, 1
  %4 = getelementptr inbounds %"struct.llvm::RISCVVPseudosTable::PseudoInfo", ptr %.05.i.i, i64 %3
  %.val.i.i = load i16, ptr %4, align 2
  %5 = zext i16 %.val.i.i to i32
  %6 = icmp ugt i32 %0, %5
  %7 = getelementptr inbounds i8, ptr %4, i64 4
  %8 = xor i64 %3, -1
  %9 = add nsw i64 %.0114.i.i, %8
  %.112.i.i = select i1 %6, i64 %9, i64 %3
  %.1.i.i = select i1 %6, ptr %7, ptr %.05.i.i
  %10 = icmp sgt i64 %.112.i.i, 0
  br i1 %10, label %_ZSt7advanceIPKN4llvm18RISCVVPseudosTable10PseudoInfoElEvRT_T0_.exit.i.i, label %_ZSt11lower_boundIPKN4llvm18RISCVVPseudosTable10PseudoInfoEZNS1_13getPseudoInfoEjE7KeyTypeZNS1_13getPseudoInfoEjE4CompET_S7_S7_RKT0_T1_.exit, !llvm.loop !4

_ZSt11lower_boundIPKN4llvm18RISCVVPseudosTable10PseudoInfoEZNS1_13getPseudoInfoEjE7KeyTypeZNS1_13getPseudoInfoEjE4CompET_S7_S7_RKT0_T1_.exit: ; preds = %_ZSt7advanceIPKN4llvm18RISCVVPseudosTable10PseudoInfoElEvRT_T0_.exit.i.i
  %11 = icmp eq ptr %.1.i.i, getelementptr inbounds (i8, ptr @_ZN4llvm18RISCVVPseudosTableL18RISCVVPseudosTableE, i64 45356)
  br i1 %11, label %15, label %12

12:                                               ; preds = %_ZSt11lower_boundIPKN4llvm18RISCVVPseudosTable10PseudoInfoEZNS1_13getPseudoInfoEjE7KeyTypeZNS1_13getPseudoInfoEjE4CompET_S7_S7_RKT0_T1_.exit
  %13 = load i16, ptr %.1.i.i, align 2
  %14 = zext i16 %13 to i32
  %.not = icmp eq i32 %0, %14
  %spec.select = select i1 %.not, ptr %.1.i.i, ptr null
  br label %15

15:                                               ; preds = %12, %_ZSt11lower_boundIPKN4llvm18RISCVVPseudosTable10PseudoInfoEZNS1_13getPseudoInfoEjE7KeyTypeZNS1_13getPseudoInfoEjE4CompET_S7_S7_RKT0_T1_.exit, %1
  %.0 = phi ptr [ null, %1 ], [ null, %_ZSt11lower_boundIPKN4llvm18RISCVVPseudosTable10PseudoInfoEZNS1_13getPseudoInfoEjE7KeyTypeZNS1_13getPseudoInfoEjE4CompET_S7_S7_RKT0_T1_.exit ], [ %spec.select, %12 ]
  ret ptr %.0
}